target datalayout = "e-m:e-p270:32:32-p271:32:32-p272:64:64-i64:64-i128:128-f80:128-n8:16:32:64-S128"
target triple = "x86_64-pc-linux-gnu"

%union.pthread_mutex_t = type { %struct.__pthread_mutex_s }
%struct.__pthread_mutex_s = type { i32, i32, i32, i32, i32, i16, i16, %struct.__pthread_internal_list }
%struct.__pthread_internal_list = type { ptr, ptr }
%struct.assoc_iterator = type { i64, ptr, ptr, i8 }

@maintenance_lock = internal global %union.pthread_mutex_t zeroinitializer, align 8

; Function Attrs: nounwind uwtable
define dso_local void @assoc_iterate_final(ptr noundef %0) #0 {
  %2 = alloca ptr, align 8
  %3 = alloca ptr, align 8
  store ptr %0, ptr %2, align 8, !tbaa !33
  call void @llvm.lifetime.start.p0(i64 8, ptr %3) #9
  %4 = load ptr, ptr %2, align 8, !tbaa !33
  store ptr %4, ptr %3, align 8, !tbaa !42
  %5 = load ptr, ptr %3, align 8, !tbaa !42
  %6 = getelementptr inbounds nuw %struct.assoc_iterator, ptr %5, i32 0, i32 3
  %7 = load i8, ptr %6, align 8, !tbaa !44, !range !23, !noundef !24
  %8 = trunc i8 %7 to i1
  br i1 %8, label %9, label %14

9:                                                ; preds = %1
  %10 = load ptr, ptr %3, align 8, !tbaa !42
  %11 = getelementptr inbounds nuw %struct.assoc_iterator, ptr %10, i32 0, i32 0
  %12 = load i64, ptr %11, align 8, !tbaa !48
  %13 = trunc i64 %12 to i32
  call void @item_unlock(i32 noundef %13)
  br label %14

14:                                               ; preds = %9, %1
  %15 = call i32 @pthread_mutex_unlock(ptr noundef @maintenance_lock) #9
  %16 = load ptr, ptr %3, align 8, !tbaa !42
  call void @free(ptr noundef %16) #9
  call void @llvm.lifetime.end.p0(i64 8, ptr %3) #9
  ret void
}