; Function Attrs: nounwind uwtable
define dso_local void @assoc_iterate_final(ptr noundef captures(none) %0) local_unnamed_addr #0 {
  %2 = getelementptr inbounds nuw i8, ptr %0, i64 24
  %3 = load i8, ptr %2, align 8, !tbaa !38, !range !40, !noundef !41
  %4 = trunc nuw i8 %3 to i1
  br i1 %4, label %5, label %8

5:                                                ; preds = %1
  %6 = load i64, ptr %0, align 8, !tbaa !44
  %7 = trunc i64 %6 to i32
  tail call void @item_unlock(i32 noundef %7) #18
  br label %8

8:                                                ; preds = %5, %1
  %9 = tail call i32 @pthread_mutex_unlock(ptr noundef nonnull @maintenance_lock) #18
  tail call void @free(ptr noundef nonnull %0) #18
  ret void
}